target datalayout = "e-m:e-p270:32:32-p271:32:32-p272:64:64-i64:64-i128:128-f80:128-n8:16:32:64-S128"
target triple = "x86_64-pc-linux-gnu"

%struct.block_header_t = type { ptr, i64, ptr, ptr }

; Function Attrs: nounwind uwtable
define internal ptr @block_next(ptr noundef %0) #0 {
  %2 = alloca ptr, align 8
  %3 = alloca ptr, align 8
  store ptr %0, ptr %2, align 8, !tbaa !3
  call void @llvm.lifetime.start.p0(i64 8, ptr %3) #5
  %4 = load ptr, ptr %2, align 8, !tbaa !3
  %5 = call ptr @block_to_ptr(ptr noundef %4)
  %6 = load ptr, ptr %2, align 8, !tbaa !3
  %7 = call i64 @block_size(ptr noundef %6)
  %8 = sub i64 %7, 8
  %9 = call ptr @offset_to_block(ptr noundef %5, i64 noundef %8)
  store ptr %9, ptr %3, align 8, !tbaa !3
  br label %10

10:                                               ; preds = %1
  %11 = load ptr, ptr %2, align 8, !tbaa !3
  %12 = call i32 @block_is_last(ptr noundef %11)
  %13 = icmp ne i32 %12, 0
  br i1 %13, label %14, label %20

14:                                               ; preds = %10
  br label %15

15:                                               ; preds = %14
  br label %16

16:                                               ; preds = %15
  br label %17

17:                                               ; preds = %16
  br label %18

18:                                               ; preds = %19, %17
  br label %19

19:                                               ; preds = %18
  br label %18

20:                                               ; preds = %10
  br label %21

21:                                               ; preds = %20
  br label %22

22:                                               ; preds = %21
  %23 = load ptr, ptr %3, align 8, !tbaa !3
  call void @llvm.lifetime.end.p0(i64 8, ptr %3) #5
  ret ptr %23
}

; Function Attrs: nounwind uwtable
define internal i32 @block_is_free(ptr noundef %0) #0 {
  %2 = alloca ptr, align 8
  store ptr %0, ptr %2, align 8, !tbaa !3
  %3 = load ptr, ptr %2, align 8, !tbaa !3
  %4 = getelementptr inbounds nuw %struct.block_header_t, ptr %3, i32 0, i32 1
  %5 = load i64, ptr %4, align 8, !tbaa !18
  %6 = and i64 %5, 1
  %7 = trunc i64 %6 to i32
  ret i32 %7
}

; Function Attrs: nounwind uwtable
define internal i64 @block_size(ptr noundef %0) #0 {
  %2 = alloca ptr, align 8
  store ptr %0, ptr %2, align 8, !tbaa !3
  %3 = load ptr, ptr %2, align 8, !tbaa !3
  %4 = getelementptr inbounds nuw %struct.block_header_t, ptr %3, i32 0, i32 1
  %5 = load i64, ptr %4, align 8, !tbaa !18
  %6 = and i64 %5, -4
  ret i64 %6
}

; Function Attrs: nounwind uwtable
define internal ptr @block_to_ptr(ptr noundef %0) #0 {
  %2 = alloca ptr, align 8
  store ptr %0, ptr %2, align 8, !tbaa !3
  %3 = load ptr, ptr %2, align 8, !tbaa !3
  %4 = getelementptr inbounds nuw i8, ptr %3, i64 16
  ret ptr %4
}

; Function Attrs: nounwind uwtable
define internal i32 @block_is_last(ptr noundef %0) #0 {
  %2 = alloca ptr, align 8
  store ptr %0, ptr %2, align 8, !tbaa !3
  %3 = load ptr, ptr %2, align 8, !tbaa !3
  %4 = call i64 @block_size(ptr noundef %3)
  %5 = icmp eq i64 %4, 0
  %6 = zext i1 %5 to i32
  ret i32 %6
}

; Function Attrs: nounwind uwtable
define internal ptr @offset_to_block(ptr noundef %0, i64 noundef %1) #0 {
  %3 = alloca ptr, align 8
  %4 = alloca i64, align 8
  store ptr %0, ptr %3, align 8, !tbaa !3
  store i64 %1, ptr %4, align 8, !tbaa !19
  %5 = load ptr, ptr %3, align 8, !tbaa !3
  %6 = ptrtoint ptr %5 to i64
  %7 = load i64, ptr %4, align 8, !tbaa !19
  %8 = add i64 %6, %7
  %9 = inttoptr i64 %8 to ptr
  ret ptr %9
}

; Function Attrs: nounwind uwtable
define void @lv_tlsf_walk_pool(ptr noundef %0, ptr noundef %1, ptr noundef %2) #0 {
  %4 = alloca ptr, align 8
  %5 = alloca ptr, align 8
  %6 = alloca ptr, align 8
  %7 = alloca ptr, align 8
  %8 = alloca ptr, align 8
  store ptr %0, ptr %4, align 8, !tbaa !3
  store ptr %1, ptr %5, align 8, !tbaa !3
  store ptr %2, ptr %6, align 8, !tbaa !3
  call void @llvm.lifetime.start.p0(i64 8, ptr %7) #5
  %9 = load ptr, ptr %5, align 8, !tbaa !3
  %10 = icmp ne ptr %9, null
  br i1 %10, label %11, label %13

11:                                               ; preds = %3
  %12 = load ptr, ptr %5, align 8, !tbaa !3
  br label %14

13:                                               ; preds = %3
  br label %14

14:                                               ; preds = %13, %11
  %15 = phi ptr [ %12, %11 ], [ @default_walker, %13 ]
  store ptr %15, ptr %7, align 8, !tbaa !3
  call void @llvm.lifetime.start.p0(i64 8, ptr %8) #5
  %16 = load ptr, ptr %4, align 8, !tbaa !3
  %17 = call ptr @offset_to_block(ptr noundef %16, i64 noundef -8)
  store ptr %17, ptr %8, align 8, !tbaa !3
  br label %18

18:                                               ; preds = %28, %14
  %19 = load ptr, ptr %8, align 8, !tbaa !3
  %20 = icmp ne ptr %19, null
  br i1 %20, label %21, label %26

21:                                               ; preds = %18
  %22 = load ptr, ptr %8, align 8, !tbaa !3
  %23 = call i32 @block_is_last(ptr noundef %22)
  %24 = icmp ne i32 %23, 0
  %25 = xor i1 %24, true
  br label %26

26:                                               ; preds = %21, %18
  %27 = phi i1 [ false, %18 ], [ %25, %21 ]
  br i1 %27, label %28, label %42

28:                                               ; preds = %26
  %29 = load ptr, ptr %7, align 8, !tbaa !3
  %30 = load ptr, ptr %8, align 8, !tbaa !3
  %31 = call ptr @block_to_ptr(ptr noundef %30)
  %32 = load ptr, ptr %8, align 8, !tbaa !3
  %33 = call i64 @block_size(ptr noundef %32)
  %34 = load ptr, ptr %8, align 8, !tbaa !3
  %35 = call i32 @block_is_free(ptr noundef %34)
  %36 = icmp ne i32 %35, 0
  %37 = xor i1 %36, true
  %38 = zext i1 %37 to i32
  %39 = load ptr, ptr %6, align 8, !tbaa !3
  call void %29(ptr noundef %31, i64 noundef %33, i32 noundef %38, ptr noundef %39)
  %40 = load ptr, ptr %8, align 8, !tbaa !3
  %41 = call ptr @block_next(ptr noundef %40)
  store ptr %41, ptr %8, align 8, !tbaa !3
  br label %18, !llvm.loop !20

42:                                               ; preds = %26
  call void @llvm.lifetime.end.p0(i64 8, ptr %8) #5
  call void @llvm.lifetime.end.p0(i64 8, ptr %7) #5
  ret void
}