; Function Attrs: nounwind uwtable
define void @lv_tlsf_walk_pool(ptr noundef %0, ptr noundef readonly %1, ptr noundef %2) local_unnamed_addr #1 {
  %.not = icmp eq ptr %1, null
  %4 = select i1 %.not, ptr @default_walker, ptr %1
  %5 = ptrtoint ptr %0 to i64
  %6 = add i64 %5, -8
  %.not1117 = icmp eq i64 %6, 0
  br i1 %.not1117, label %.critedge, label %.lr.ph

.lr.ph:                                           ; preds = %3, %block_next.exit
  %.018.in = phi i64 [ %19, %block_next.exit ], [ %6, %3 ]
  %.018 = inttoptr i64 %.018.in to ptr
  %7 = getelementptr i8, ptr %.018, i64 8
  %.0.val15 = load i64, ptr %7, align 8, !tbaa !15
  %8 = icmp ugt i64 %.0.val15, 3
  br i1 %8, label %9, label %.critedge

9:                                                ; preds = %.lr.ph
  %10 = getelementptr inbounds nuw i8, ptr %.018, i64 16
  %11 = and i64 %.0.val15, -4
  %12 = trunc i64 %.0.val15 to i32
  %13 = and i32 %12, 1
  %14 = xor i32 %13, 1
  tail call void %4(ptr noundef nonnull %10, i64 noundef %11, i32 noundef %14, ptr noundef %2) #11
  %.val.i = load i64, ptr %7, align 8, !tbaa !15
  %15 = icmp ugt i64 %.val.i, 3
  br i1 %15, label %block_next.exit, label %.preheader.i

.preheader.i:                                     ; preds = %9, %.preheader.i
  br label %.preheader.i

block_next.exit:                                  ; preds = %9
  %16 = and i64 %.val.i, -4
  %17 = ptrtoint ptr %10 to i64
  %18 = add i64 %17, -8
  %19 = add i64 %18, %16
  %.not11 = icmp eq i64 %19, 0
  br i1 %.not11, label %.critedge, label %.lr.ph, !llvm.loop !19

.critedge:                                        ; preds = %.lr.ph, %block_next.exit, %3
  ret void
}